target datalayout = "e-m:e-p270:32:32-p271:32:32-p272:64:64-i64:64-i128:128-f80:128-n8:16:32:64-S128"
target triple = "x86_64-pc-linux-gnu"

%struct.PyVarObject = type { %struct._object, i64 }
%struct._object = type { %union.anon, ptr }
%union.anon = type { i64 }
%struct._PyManagedBufferObject = type { %struct._object, i32, i64, %struct.Py_buffer }
%struct.Py_buffer = type { ptr, ptr, i64, i64, i32, i32, ptr, ptr, ptr, ptr, ptr }
%struct.PyMemoryViewObject = type { %struct.PyVarObject, ptr, i64, i32, i64, %struct.Py_buffer, ptr, [1 x i64] }
%struct.anon = type { i32, i32 }

@PyExc_ValueError = external global ptr, align 8
@.str.8 = private unnamed_addr constant [50 x i8] c"operation forbidden on released memoryview object\00", align 1
@PyExc_TypeError = external global ptr, align 8
@PyExc_NotImplementedError = external global ptr, align 8
@.str.51 = private unnamed_addr constant [6 x i8] c"index\00", align 1
@.str.124 = private unnamed_addr constant [31 x i8] c"invalid lookup on 0-dim memory\00", align 1
@.str.125 = private unnamed_addr constant [33 x i8] c"memoryview.index(x): x not found\00", align 1
@.str.126 = private unnamed_addr constant [44 x i8] c"multi-dimensional lookup is not implemented\00", align 1

; Function Attrs: alwaysinline nounwind uwtable
define internal i32 @_Py_IsImmortal(ptr noundef %0) #4 {
  %2 = alloca ptr, align 8
  store ptr %0, ptr %2, align 8, !tbaa !4
  %3 = load ptr, ptr %2, align 8, !tbaa !4
  %4 = getelementptr inbounds nuw %struct._object, ptr %3, i32 0, i32 0
  %5 = getelementptr inbounds nuw %struct.anon, ptr %4, i32 0, i32 0
  %6 = load i32, ptr %5, align 8, !tbaa !29
  %7 = icmp slt i32 %6, 0
  %8 = zext i1 %7 to i32
  ret i32 %8
}

; Function Attrs: alwaysinline nounwind uwtable
define internal void @Py_DECREF(ptr noundef %0) #4 {
  %2 = alloca ptr, align 8
  store ptr %0, ptr %2, align 8, !tbaa !4
  %3 = load ptr, ptr %2, align 8, !tbaa !4
  %4 = call i32 @_Py_IsImmortal(ptr noundef %3)
  %5 = icmp ne i32 %4, 0
  br i1 %5, label %6, label %7

6:                                                ; preds = %1
  br label %16

7:                                                ; preds = %1
  %8 = load ptr, ptr %2, align 8, !tbaa !4
  %9 = getelementptr inbounds nuw %struct._object, ptr %8, i32 0, i32 0
  %10 = getelementptr inbounds nuw %struct.anon, ptr %9, i32 0, i32 0
  %11 = load i32, ptr %10, align 8, !tbaa !29
  %12 = add i32 %11, -1
  store i32 %12, ptr %10, align 8, !tbaa !29
  %13 = icmp eq i32 %12, 0
  br i1 %13, label %14, label %16

14:                                               ; preds = %7
  %15 = load ptr, ptr %2, align 8, !tbaa !4
  call void @_Py_Dealloc(ptr noundef %15)
  br label %16

16:                                               ; preds = %6, %14, %7
  ret void
}

; Function Attrs: nounwind uwtable
define internal ptr @memoryview_index_impl(ptr noundef %0, ptr noundef %1, i64 noundef %2, i64 noundef %3) #0 {
  %5 = alloca ptr, align 8
  %6 = alloca ptr, align 8
  %7 = alloca ptr, align 8
  %8 = alloca i64, align 8
  %9 = alloca i64, align 8
  %10 = alloca ptr, align 8
  %11 = alloca i32, align 4
  %12 = alloca i64, align 8
  %13 = alloca ptr, align 8
  %14 = alloca i64, align 8
  %15 = alloca ptr, align 8
  %16 = alloca i32, align 4
  store ptr %0, ptr %6, align 8, !tbaa !9
  store ptr %1, ptr %7, align 8, !tbaa !4
  store i64 %2, ptr %8, align 8, !tbaa !23
  store i64 %3, ptr %9, align 8, !tbaa !23
  call void @llvm.lifetime.start.p0(i64 8, ptr %10) #9
  %17 = load ptr, ptr %6, align 8, !tbaa !9
  %18 = getelementptr inbounds nuw %struct.PyMemoryViewObject, ptr %17, i32 0, i32 5
  store ptr %18, ptr %10, align 8, !tbaa !9
  %19 = load ptr, ptr %6, align 8, !tbaa !9
  %20 = getelementptr inbounds nuw %struct.PyMemoryViewObject, ptr %19, i32 0, i32 3
  %21 = load i32, ptr %20, align 8, !tbaa !33
  %22 = and i32 %21, 1
  %23 = icmp ne i32 %22, 0
  br i1 %23, label %32, label %24

24:                                               ; preds = %4
  %25 = load ptr, ptr %6, align 8, !tbaa !9
  %26 = getelementptr inbounds nuw %struct.PyMemoryViewObject, ptr %25, i32 0, i32 1
  %27 = load ptr, ptr %26, align 8, !tbaa !26
  %28 = getelementptr inbounds nuw %struct._PyManagedBufferObject, ptr %27, i32 0, i32 1
  %29 = load i32, ptr %28, align 8, !tbaa !10
  %30 = and i32 %29, 1
  %31 = icmp ne i32 %30, 0
  br i1 %31, label %32, label %34

32:                                               ; preds = %24, %4
  %33 = load ptr, ptr @PyExc_ValueError, align 8, !tbaa !4
  call void @PyErr_SetString(ptr noundef %33, ptr noundef @.str.8)
  store ptr null, ptr %5, align 8
  store i32 1, ptr %11, align 4
  br label %152

34:                                               ; preds = %24
  %35 = load ptr, ptr %10, align 8, !tbaa !9
  %36 = getelementptr inbounds nuw %struct.Py_buffer, ptr %35, i32 0, i32 5
  %37 = load i32, ptr %36, align 4, !tbaa !25
  %38 = icmp eq i32 %37, 0
  br i1 %38, label %39, label %41

39:                                               ; preds = %34
  %40 = load ptr, ptr @PyExc_TypeError, align 8, !tbaa !4
  call void @PyErr_SetString(ptr noundef %40, ptr noundef @.str.124)
  store ptr null, ptr %5, align 8
  store i32 1, ptr %11, align 4
  br label %152

41:                                               ; preds = %34
  %42 = load ptr, ptr %10, align 8, !tbaa !9
  %43 = getelementptr inbounds nuw %struct.Py_buffer, ptr %42, i32 0, i32 5
  %44 = load i32, ptr %43, align 4, !tbaa !25
  %45 = icmp eq i32 %44, 1
  br i1 %45, label %46, label %150

46:                                               ; preds = %41
  call void @llvm.lifetime.start.p0(i64 8, ptr %12) #9
  %47 = load ptr, ptr %10, align 8, !tbaa !9
  %48 = getelementptr inbounds nuw %struct.Py_buffer, ptr %47, i32 0, i32 7
  %49 = load ptr, ptr %48, align 8, !tbaa !44
  %50 = getelementptr i64, ptr %49, i64 0
  %51 = load i64, ptr %50, align 8, !tbaa !23
  store i64 %51, ptr %12, align 8, !tbaa !23
  %52 = load i64, ptr %8, align 8, !tbaa !23
  %53 = icmp slt i64 %52, 0
  br i1 %53, label %54, label %66

54:                                               ; preds = %46
  %55 = load i64, ptr %8, align 8, !tbaa !23
  %56 = load i64, ptr %12, align 8, !tbaa !23
  %57 = add i64 %55, %56
  %58 = icmp sgt i64 %57, 0
  br i1 %58, label %59, label %63

59:                                               ; preds = %54
  %60 = load i64, ptr %8, align 8, !tbaa !23
  %61 = load i64, ptr %12, align 8, !tbaa !23
  %62 = add i64 %60, %61
  br label %64

63:                                               ; preds = %54
  br label %64

64:                                               ; preds = %63, %59
  %65 = phi i64 [ %62, %59 ], [ 0, %63 ]
  store i64 %65, ptr %8, align 8, !tbaa !23
  br label %66

66:                                               ; preds = %64, %46
  %67 = load i64, ptr %9, align 8, !tbaa !23
  %68 = icmp slt i64 %67, 0
  br i1 %68, label %69, label %81

69:                                               ; preds = %66
  %70 = load i64, ptr %9, align 8, !tbaa !23
  %71 = load i64, ptr %12, align 8, !tbaa !23
  %72 = add i64 %70, %71
  %73 = icmp sgt i64 %72, 0
  br i1 %73, label %74, label %78

74:                                               ; preds = %69
  %75 = load i64, ptr %9, align 8, !tbaa !23
  %76 = load i64, ptr %12, align 8, !tbaa !23
  %77 = add i64 %75, %76
  br label %79

78:                                               ; preds = %69
  br label %79

79:                                               ; preds = %78, %74
  %80 = phi i64 [ %77, %74 ], [ 0, %78 ]
  store i64 %80, ptr %9, align 8, !tbaa !23
  br label %81

81:                                               ; preds = %79, %66
  %82 = load i64, ptr %9, align 8, !tbaa !23
  %83 = load i64, ptr %12, align 8, !tbaa !23
  %84 = icmp sgt i64 %82, %83
  br i1 %84, label %85, label %87

85:                                               ; preds = %81
  %86 = load i64, ptr %12, align 8, !tbaa !23
  br label %89

87:                                               ; preds = %81
  %88 = load i64, ptr %9, align 8, !tbaa !23
  br label %89

89:                                               ; preds = %87, %85
  %90 = phi i64 [ %86, %85 ], [ %88, %87 ]
  store i64 %90, ptr %9, align 8, !tbaa !23
  %91 = load i64, ptr %8, align 8, !tbaa !23
  %92 = load i64, ptr %9, align 8, !tbaa !23
  %93 = icmp sgt i64 %91, %92
  br i1 %93, label %94, label %96

94:                                               ; preds = %89
  %95 = load i64, ptr %9, align 8, !tbaa !23
  br label %98

96:                                               ; preds = %89
  %97 = load i64, ptr %8, align 8, !tbaa !23
  br label %98

98:                                               ; preds = %96, %94
  %99 = phi i64 [ %95, %94 ], [ %97, %96 ]
  store i64 %99, ptr %8, align 8, !tbaa !23
  call void @llvm.lifetime.start.p0(i64 8, ptr %13) #9
  %100 = load ptr, ptr %6, align 8, !tbaa !9
  store ptr %100, ptr %13, align 8, !tbaa !4
  call void @llvm.lifetime.start.p0(i64 8, ptr %14) #9
  %101 = load i64, ptr %8, align 8, !tbaa !23
  store i64 %101, ptr %14, align 8, !tbaa !23
  br label %102

102:                                              ; preds = %142, %98
  %103 = load i64, ptr %14, align 8, !tbaa !23
  %104 = load i64, ptr %9, align 8, !tbaa !23
  %105 = icmp slt i64 %103, %104
  br i1 %105, label %107, label %106

106:                                              ; preds = %102
  store i32 2, ptr %11, align 4
  br label %145

107:                                              ; preds = %102
  call void @llvm.lifetime.start.p0(i64 8, ptr %15) #9
  %108 = load ptr, ptr %13, align 8, !tbaa !4
  %109 = load i64, ptr %14, align 8, !tbaa !23
  %110 = call ptr @memory_item(ptr noundef %108, i64 noundef %109)
  store ptr %110, ptr %15, align 8, !tbaa !4
  %111 = load ptr, ptr %15, align 8, !tbaa !4
  %112 = icmp eq ptr %111, null
  br i1 %112, label %113, label %114

113:                                              ; preds = %107
  store ptr null, ptr %5, align 8
  store i32 1, ptr %11, align 4
  br label %139

114:                                              ; preds = %107
  %115 = load ptr, ptr %15, align 8, !tbaa !4
  %116 = load ptr, ptr %7, align 8, !tbaa !4
  %117 = icmp eq ptr %115, %116
  br i1 %117, label %118, label %122

118:                                              ; preds = %114
  %119 = load ptr, ptr %15, align 8, !tbaa !4
  call void @Py_DECREF(ptr noundef %119)
  %120 = load i64, ptr %14, align 8, !tbaa !23
  %121 = call ptr @PyLong_FromSsize_t(i64 noundef %120)
  store ptr %121, ptr %5, align 8
  store i32 1, ptr %11, align 4
  br label %139

122:                                              ; preds = %114
  call void @llvm.lifetime.start.p0(i64 4, ptr %16) #9
  %123 = load ptr, ptr %15, align 8, !tbaa !4
  %124 = load ptr, ptr %7, align 8, !tbaa !4
  %125 = call i32 @PyObject_RichCompareBool(ptr noundef %123, ptr noundef %124, i32 noundef 2)
  store i32 %125, ptr %16, align 4, !tbaa !21
  %126 = load ptr, ptr %15, align 8, !tbaa !4
  call void @Py_DECREF(ptr noundef %126)
  %127 = load i32, ptr %16, align 4, !tbaa !21
  %128 = icmp sgt i32 %127, 0
  br i1 %128, label %129, label %132

129:                                              ; preds = %122
  %130 = load i64, ptr %14, align 8, !tbaa !23
  %131 = call ptr @PyLong_FromSsize_t(i64 noundef %130)
  store ptr %131, ptr %5, align 8
  store i32 1, ptr %11, align 4
  br label %138

132:                                              ; preds = %122
  %133 = load i32, ptr %16, align 4, !tbaa !21
  %134 = icmp slt i32 %133, 0
  br i1 %134, label %135, label %136

135:                                              ; preds = %132
  store ptr null, ptr %5, align 8
  store i32 1, ptr %11, align 4
  br label %138

136:                                              ; preds = %132
  br label %137

137:                                              ; preds = %136
  store i32 0, ptr %11, align 4
  br label %138

138:                                              ; preds = %137, %135, %129
  call void @llvm.lifetime.end.p0(i64 4, ptr %16) #9
  br label %139

139:                                              ; preds = %138, %118, %113
  call void @llvm.lifetime.end.p0(i64 8, ptr %15) #9
  %140 = load i32, ptr %11, align 4
  switch i32 %140, label %145 [
    i32 0, label %141
  ]

141:                                              ; preds = %139
  br label %142

142:                                              ; preds = %141
  %143 = load i64, ptr %14, align 8, !tbaa !23
  %144 = add i64 %143, 1
  store i64 %144, ptr %14, align 8, !tbaa !23
  br label %102, !llvm.loop !200

145:                                              ; preds = %139, %106
  call void @llvm.lifetime.end.p0(i64 8, ptr %14) #9
  %146 = load i32, ptr %11, align 4
  switch i32 %146, label %149 [
    i32 2, label %147
  ]

147:                                              ; preds = %145
  %148 = load ptr, ptr @PyExc_ValueError, align 8, !tbaa !4
  call void @PyErr_SetString(ptr noundef %148, ptr noundef @.str.125)
  store ptr null, ptr %5, align 8
  store i32 1, ptr %11, align 4
  br label %149

149:                                              ; preds = %147, %145
  call void @llvm.lifetime.end.p0(i64 8, ptr %13) #9
  call void @llvm.lifetime.end.p0(i64 8, ptr %12) #9
  br label %152

150:                                              ; preds = %41
  %151 = load ptr, ptr @PyExc_NotImplementedError, align 8, !tbaa !4
  call void @PyErr_SetString(ptr noundef %151, ptr noundef @.str.126)
  store ptr null, ptr %5, align 8
  store i32 1, ptr %11, align 4
  br label %152

152:                                              ; preds = %150, %149, %39, %32
  call void @llvm.lifetime.end.p0(i64 8, ptr %10) #9
  %153 = load ptr, ptr %5, align 8
  ret ptr %153
}

; Function Attrs: nounwind uwtable
define internal ptr @memoryview_index(ptr noundef %0, ptr noundef %1, i64 noundef %2) #0 {
  %4 = alloca ptr, align 8
  %5 = alloca ptr, align 8
  %6 = alloca i64, align 8
  %7 = alloca ptr, align 8
  %8 = alloca ptr, align 8
  %9 = alloca i64, align 8
  %10 = alloca i64, align 8
  store ptr %0, ptr %4, align 8, !tbaa !4
  store ptr %1, ptr %5, align 8, !tbaa !71
  store i64 %2, ptr %6, align 8, !tbaa !23
  call void @llvm.lifetime.start.p0(i64 8, ptr %7) #9
  store ptr null, ptr %7, align 8, !tbaa !4
  call void @llvm.lifetime.start.p0(i64 8, ptr %8) #9
  call void @llvm.lifetime.start.p0(i64 8, ptr %9) #9
  store i64 0, ptr %9, align 8, !tbaa !23
  call void @llvm.lifetime.start.p0(i64 8, ptr %10) #9
  store i64 9223372036854775807, ptr %10, align 8, !tbaa !23
  %11 = load i64, ptr %6, align 8, !tbaa !23
  %12 = icmp sle i64 1, %11
  br i1 %12, label %13, label %16

13:                                               ; preds = %3
  %14 = load i64, ptr %6, align 8, !tbaa !23
  %15 = icmp sle i64 %14, 3
  br i1 %15, label %21, label %16

16:                                               ; preds = %13, %3
  %17 = load i64, ptr %6, align 8, !tbaa !23
  %18 = call i32 @_PyArg_CheckPositional(ptr noundef @.str.51, i64 noundef %17, i64 noundef 1, i64 noundef 3)
  %19 = icmp ne i32 %18, 0
  br i1 %19, label %21, label %20

20:                                               ; preds = %16
  br label %53

21:                                               ; preds = %16, %13
  %22 = load ptr, ptr %5, align 8, !tbaa !71
  %23 = getelementptr ptr, ptr %22, i64 0
  %24 = load ptr, ptr %23, align 8, !tbaa !4
  store ptr %24, ptr %8, align 8, !tbaa !4
  %25 = load i64, ptr %6, align 8, !tbaa !23
  %26 = icmp slt i64 %25, 2
  br i1 %26, label %27, label %28

27:                                               ; preds = %21
  br label %47

28:                                               ; preds = %21
  %29 = load ptr, ptr %5, align 8, !tbaa !71
  %30 = getelementptr ptr, ptr %29, i64 1
  %31 = load ptr, ptr %30, align 8, !tbaa !4
  %32 = call i32 @_PyEval_SliceIndexNotNone(ptr noundef %31, ptr noundef %9)
  %33 = icmp ne i32 %32, 0
  br i1 %33, label %35, label %34

34:                                               ; preds = %28
  br label %53

35:                                               ; preds = %28
  %36 = load i64, ptr %6, align 8, !tbaa !23
  %37 = icmp slt i64 %36, 3
  br i1 %37, label %38, label %39

38:                                               ; preds = %35
  br label %47

39:                                               ; preds = %35
  %40 = load ptr, ptr %5, align 8, !tbaa !71
  %41 = getelementptr ptr, ptr %40, i64 2
  %42 = load ptr, ptr %41, align 8, !tbaa !4
  %43 = call i32 @_PyEval_SliceIndexNotNone(ptr noundef %42, ptr noundef %10)
  %44 = icmp ne i32 %43, 0
  br i1 %44, label %46, label %45

45:                                               ; preds = %39
  br label %53

46:                                               ; preds = %39
  br label %47

47:                                               ; preds = %46, %38, %27
  %48 = load ptr, ptr %4, align 8, !tbaa !4
  %49 = load ptr, ptr %8, align 8, !tbaa !4
  %50 = load i64, ptr %9, align 8, !tbaa !23
  %51 = load i64, ptr %10, align 8, !tbaa !23
  %52 = call ptr @memoryview_index_impl(ptr noundef %48, ptr noundef %49, i64 noundef %50, i64 noundef %51)
  store ptr %52, ptr %7, align 8, !tbaa !4
  br label %53

53:                                               ; preds = %47, %45, %34, %20
  %54 = load ptr, ptr %7, align 8, !tbaa !4
  call void @llvm.lifetime.end.p0(i64 8, ptr %10) #9
  call void @llvm.lifetime.end.p0(i64 8, ptr %9) #9
  call void @llvm.lifetime.end.p0(i64 8, ptr %8) #9
  call void @llvm.lifetime.end.p0(i64 8, ptr %7) #9
  ret ptr %54
}