; Function Attrs: nounwind uwtable
define internal ptr @memoryview_index(ptr noundef readonly captures(none) %0, ptr noundef readonly captures(none) %1, i64 noundef %2) #0 {
  %4 = alloca i64, align 8
  %5 = alloca i64, align 8
  call void @llvm.lifetime.start.p0(i64 8, ptr nonnull %4) #14
  store i64 0, ptr %4, align 8, !tbaa !124
  call void @llvm.lifetime.start.p0(i64 8, ptr nonnull %5) #14
  store i64 9223372036854775807, ptr %5, align 8, !tbaa !124
  %6 = add i64 %2, -1
  %or.cond = icmp ult i64 %6, 3
  br i1 %or.cond, label %9, label %7

7:                                                ; preds = %3
  %8 = tail call i32 @_PyArg_CheckPositional(ptr noundef nonnull @.str.51, i64 noundef %2, i64 noundef 1, i64 noundef 3) #14
  %.not = icmp eq i32 %8, 0
  br i1 %.not, label %memoryview_index_impl.exit, label %9

9:                                                ; preds = %3, %7
  %10 = load ptr, ptr %1, align 8, !tbaa !104
  %11 = icmp slt i64 %2, 2
  br i1 %11, label %22, label %12

12:                                               ; preds = %9
  %13 = getelementptr i8, ptr %1, i64 8
  %14 = load ptr, ptr %13, align 8, !tbaa !104
  %15 = call i32 @_PyEval_SliceIndexNotNone(ptr noundef %14, ptr noundef nonnull %4) #14
  %.not12 = icmp eq i32 %15, 0
  br i1 %.not12, label %memoryview_index_impl.exit, label %16

16:                                               ; preds = %12
  %17 = icmp eq i64 %2, 2
  br i1 %17, label %22, label %18

18:                                               ; preds = %16
  %19 = getelementptr i8, ptr %1, i64 16
  %20 = load ptr, ptr %19, align 8, !tbaa !104
  %21 = call i32 @_PyEval_SliceIndexNotNone(ptr noundef %20, ptr noundef nonnull %5) #14
  %.not13 = icmp eq i32 %21, 0
  br i1 %.not13, label %memoryview_index_impl.exit, label %._crit_edge

._crit_edge:                                      ; preds = %18
  %.pre = load i64, ptr %5, align 8, !tbaa !124
  br label %22

22:                                               ; preds = %._crit_edge, %16, %9
  %23 = phi i64 [ %.pre, %._crit_edge ], [ 9223372036854775807, %16 ], [ 9223372036854775807, %9 ]
  %24 = load i64, ptr %4, align 8, !tbaa !124
  %25 = getelementptr inbounds nuw i8, ptr %0, i64 40
  %26 = load i32, ptr %25, align 8, !tbaa !109
  %27 = and i32 %26, 1
  %.not.i = icmp eq i32 %27, 0
  br i1 %.not.i, label %28, label %34

28:                                               ; preds = %22
  %29 = getelementptr inbounds nuw i8, ptr %0, i64 24
  %30 = load ptr, ptr %29, align 8, !tbaa !105
  %31 = getelementptr inbounds nuw i8, ptr %30, i64 16
  %32 = load i32, ptr %31, align 8, !tbaa !4
  %33 = and i32 %32, 1
  %.not59.i = icmp eq i32 %33, 0
  br i1 %.not59.i, label %36, label %34

34:                                               ; preds = %28, %22
  %35 = load ptr, ptr @PyExc_ValueError, align 8, !tbaa !104
  call void @PyErr_SetString(ptr noundef %35, ptr noundef nonnull @.str.8) #14
  br label %memoryview_index_impl.exit

36:                                               ; preds = %28
  %37 = getelementptr inbounds nuw i8, ptr %0, i64 92
  %38 = load i32, ptr %37, align 4, !tbaa !103
  switch i32 %38, label %77 [
    i32 0, label %39
    i32 1, label %41
  ]

39:                                               ; preds = %36
  %40 = load ptr, ptr @PyExc_TypeError, align 8, !tbaa !104
  call void @PyErr_SetString(ptr noundef %40, ptr noundef nonnull @.str.124) #14
  br label %memoryview_index_impl.exit

41:                                               ; preds = %36
  %42 = getelementptr inbounds nuw i8, ptr %0, i64 104
  %43 = load ptr, ptr %42, align 8, !tbaa !127
  %44 = load i64, ptr %43, align 8, !tbaa !124
  %45 = icmp slt i64 %24, 0
  %46 = add i64 %44, %24
  %47 = call i64 @llvm.smax.i64(i64 %46, i64 0)
  %.045.i = select i1 %45, i64 %47, i64 %24
  %48 = icmp slt i64 %23, 0
  %49 = add i64 %44, %23
  %50 = call i64 @llvm.smax.i64(i64 %49, i64 0)
  %.047.i = select i1 %48, i64 %50, i64 %23
  %51 = call i64 @llvm.smin.i64(i64 %.047.i, i64 %44)
  %.not6075.i = icmp slt i64 %.045.i, %51
  br i1 %.not6075.i, label %.lr.ph.i, label %._crit_edge.i

.lr.ph.i:                                         ; preds = %41, %74
  %.04676.i = phi i64 [ %75, %74 ], [ %.045.i, %41 ]
  %52 = call ptr @memory_item(ptr noundef readonly %0, i64 noundef %.04676.i)
  %53 = icmp eq ptr %52, null
  br i1 %53, label %memoryview_index_impl.exit, label %54

54:                                               ; preds = %.lr.ph.i
  %55 = icmp eq ptr %52, %10
  br i1 %55, label %56, label %63

56:                                               ; preds = %54
  %57 = load i32, ptr %52, align 8, !tbaa !102
  %.not.i61.i = icmp sgt i32 %57, -1
  br i1 %.not.i61.i, label %58, label %Py_DECREF.exit62.i

58:                                               ; preds = %56
  %59 = add nsw i32 %57, -1
  store i32 %59, ptr %52, align 8, !tbaa !102
  %60 = icmp eq i32 %59, 0
  br i1 %60, label %61, label %Py_DECREF.exit62.i

61:                                               ; preds = %58
  call void @_Py_Dealloc(ptr noundef nonnull %52) #14
  br label %Py_DECREF.exit62.i

Py_DECREF.exit62.i:                               ; preds = %61, %58, %56
  %62 = call ptr @PyLong_FromSsize_t(i64 noundef %.04676.i) #14
  br label %memoryview_index_impl.exit

63:                                               ; preds = %54
  %64 = call i32 @PyObject_RichCompareBool(ptr noundef nonnull %52, ptr noundef %10, i32 noundef 2) #14
  %65 = load i32, ptr %52, align 8, !tbaa !102
  %.not.i.i = icmp sgt i32 %65, -1
  br i1 %.not.i.i, label %66, label %Py_DECREF.exit.i

66:                                               ; preds = %63
  %67 = add nsw i32 %65, -1
  store i32 %67, ptr %52, align 8, !tbaa !102
  %68 = icmp eq i32 %67, 0
  br i1 %68, label %69, label %Py_DECREF.exit.i

69:                                               ; preds = %66
  call void @_Py_Dealloc(ptr noundef nonnull %52) #14
  br label %Py_DECREF.exit.i

Py_DECREF.exit.i:                                 ; preds = %69, %66, %63
  %70 = icmp sgt i32 %64, 0
  br i1 %70, label %71, label %73

71:                                               ; preds = %Py_DECREF.exit.i
  %72 = call ptr @PyLong_FromSsize_t(i64 noundef %.04676.i) #14
  br label %memoryview_index_impl.exit

73:                                               ; preds = %Py_DECREF.exit.i
  %.not69.i = icmp eq i32 %64, 0
  br i1 %.not69.i, label %74, label %memoryview_index_impl.exit

74:                                               ; preds = %73
  %75 = add i64 %.04676.i, 1
  %exitcond.not.i = icmp eq i64 %75, %51
  br i1 %exitcond.not.i, label %._crit_edge.i, label %.lr.ph.i, !llvm.loop !180

._crit_edge.i:                                    ; preds = %74, %41
  %76 = load ptr, ptr @PyExc_ValueError, align 8, !tbaa !104
  call void @PyErr_SetString(ptr noundef %76, ptr noundef nonnull @.str.125) #14
  br label %memoryview_index_impl.exit

77:                                               ; preds = %36
  %78 = load ptr, ptr @PyExc_NotImplementedError, align 8, !tbaa !104
  call void @PyErr_SetString(ptr noundef %78, ptr noundef nonnull @.str.126) #14
  br label %memoryview_index_impl.exit

memoryview_index_impl.exit:                       ; preds = %73, %.lr.ph.i, %77, %._crit_edge.i, %71, %Py_DECREF.exit62.i, %39, %34, %18, %12, %7
  %.0 = phi ptr [ null, %18 ], [ null, %12 ], [ null, %7 ], [ null, %34 ], [ null, %39 ], [ null, %77 ], [ null, %._crit_edge.i ], [ %72, %71 ], [ %62, %Py_DECREF.exit62.i ], [ null, %.lr.ph.i ], [ null, %73 ]
  call void @llvm.lifetime.end.p0(i64 8, ptr nonnull %5) #14
  call void @llvm.lifetime.end.p0(i64 8, ptr nonnull %4) #14
  ret ptr %.0
}